target datalayout = "e-m:e-p270:32:32-p271:32:32-p272:64:64-i64:64-i128:128-f80:128-n8:16:32:64-S128"
target triple = "x86_64-pc-linux-gnu"

%struct.H5HF_hdr_t = type { %struct.H5C_cache_entry_t, i32, i32, i8, i8, i8, i8, %struct.H5HF_dtable_t, i64, i64, i32, i64, i64, %struct.H5O_pline_t, i64, i32, i64, i64, i64, i64, i64, i64, i64, i64, i64, i64, i64, i32, ptr, i64, i8, i8, i8, ptr, i32, ptr, %struct.H5HF_block_iter_t, ptr, i64, i8, i8, i64, i8, i8, i8, i8 }
%struct.H5C_cache_entry_t = type { ptr, i64, i64, ptr, i8, ptr, i8, i8, i8, i8, i32, i8, i8, i8, i8, i8, i32, ptr, i32, i32, i32, i32, i32, i8, i8, ptr, ptr, ptr, ptr, ptr, ptr, i8, i32, i8, i64, ptr, i64, i64, i32, i8, i32, i32, i8, ptr, ptr, ptr }
%struct.H5HF_dtable_t = type { %struct.H5HF_dtable_cparam_t, i64, i32, i32, i32, i32, i32, i32, i32, i64, ptr, ptr, ptr, ptr }
%struct.H5HF_dtable_cparam_t = type { i32, i64, i64, i32, i32 }
%struct.H5O_pline_t = type { %struct.H5O_shared_t, i32, i64, i64, ptr }
%struct.H5O_shared_t = type { i32, ptr, i32, %union.anon }
%union.anon = type { %struct.H5O_mesg_loc_t }
%struct.H5O_mesg_loc_t = type { i32, i64 }
%struct.H5HF_block_iter_t = type { i8, ptr }

@.str = private unnamed_addr constant [103 x i8] c"generated/home/dtcxzyw/WorkSpace/Projects/compilers/llvm-opt-benchmark/bench/hdf5/hdf5/src/H5HFspace.c\00", align 1
@__func__.H5HF__space_revert_root = private unnamed_addr constant [24 x i8] c"H5HF__space_revert_root\00", align 1
@H5E_FSPACE_g = external global i64, align 8
@H5E_BADITER_g = external global i64, align 8
@.str.5 = private unnamed_addr constant [53 x i8] c"can't iterate over sections to reset parent pointers\00", align 1

; Function Attrs: nounwind uwtable
define i32 @H5HF__space_revert_root(ptr noundef %0) #0 {
  %2 = alloca ptr, align 8
  %3 = alloca i32, align 4
  %4 = alloca i8, align 1
  store ptr %0, ptr %2, align 8
  store i32 0, ptr %3, align 4
  store i8 0, ptr %4, align 1
  %5 = load ptr, ptr %2, align 8
  %6 = getelementptr inbounds %struct.H5HF_hdr_t, ptr %5, i32 0, i32 35
  %7 = load ptr, ptr %6, align 8
  %8 = icmp ne ptr %7, null
  br i1 %8, label %9, label %34

9:                                                ; preds = %1
  %10 = load ptr, ptr %2, align 8
  %11 = getelementptr inbounds %struct.H5HF_hdr_t, ptr %10, i32 0, i32 28
  %12 = load ptr, ptr %11, align 8
  %13 = load ptr, ptr %2, align 8
  %14 = getelementptr inbounds %struct.H5HF_hdr_t, ptr %13, i32 0, i32 35
  %15 = load ptr, ptr %14, align 8
  %16 = call i32 @H5FS_sect_iterate(ptr noundef %12, ptr noundef %15, ptr noundef @H5HF__space_revert_root_cb, ptr noundef null)
  %17 = icmp slt i32 %16, 0
  br i1 %17, label %18, label %33

18:                                               ; preds = %9
  br label %19

19:                                               ; preds = %18
  br label %20

20:                                               ; preds = %19
  br label %21

21:                                               ; preds = %20
  %22 = load i64, ptr @H5E_FSPACE_g, align 8
  %23 = load i64, ptr @H5E_BADITER_g, align 8
  %24 = call i32 (ptr, ptr, i32, i64, i64, ptr, ...) @H5E_printf_stack(ptr noundef @.str, ptr noundef @__func__.H5HF__space_revert_root, i32 noundef 281, i64 noundef %22, i64 noundef %23, ptr noundef @.str.5)
  br label %25

25:                                               ; preds = %21
  store i8 1, ptr %4, align 1
  %26 = load i8, ptr %4, align 1
  %27 = trunc i8 %26 to i1
  %28 = zext i1 %27 to i8
  store i8 %28, ptr %4, align 1
  br label %29

29:                                               ; preds = %25
  br label %30

30:                                               ; preds = %29
  store i32 -1, ptr %3, align 4
  br label %35

31:                                               ; No predecessors!
  br label %32

32:                                               ; preds = %31
  br label %33

33:                                               ; preds = %32, %9
  br label %34

34:                                               ; preds = %33, %1
  br label %35

35:                                               ; preds = %34, %30
  %36 = load i32, ptr %3, align 4
  ret i32 %36
}