; Function Attrs: nounwind uwtable
define range(i32 -1, 1) i32 @H5HF__space_revert_root(ptr nocapture noundef readonly %0) local_unnamed_addr #0 {
  %2 = getelementptr inbounds i8, ptr %0, i64 640
  %3 = load ptr, ptr %2, align 8
  %.not = icmp eq ptr %3, null
  br i1 %.not, label %13, label %4

4:                                                ; preds = %1
  %5 = getelementptr inbounds i8, ptr %0, i64 600
  %6 = load ptr, ptr %5, align 8
  %7 = tail call i32 @H5FS_sect_iterate(ptr noundef %6, ptr noundef nonnull %3, ptr noundef nonnull @H5HF__space_revert_root_cb, ptr noundef null) #4
  %8 = icmp slt i32 %7, 0
  br i1 %8, label %9, label %13

9:                                                ; preds = %4
  %10 = load i64, ptr @H5E_FSPACE_g, align 8
  %11 = load i64, ptr @H5E_BADITER_g, align 8
  %12 = tail call i32 (ptr, ptr, i32, i64, i64, ptr, ...) @H5E_printf_stack(ptr noundef nonnull @.str, ptr noundef nonnull @__func__.H5HF__space_revert_root, i32 noundef 281, i64 noundef %10, i64 noundef %11, ptr noundef nonnull @.str.5) #4
  br label %13

13:                                               ; preds = %1, %4, %9
  %.0 = phi i32 [ -1, %9 ], [ 0, %4 ], [ 0, %1 ]
  ret i32 %.0
}